target datalayout = "e-m:e-p270:32:32-p271:32:32-p272:64:64-i64:64-i128:128-f80:128-n8:16:32:64-S128"
target triple = "x86_64-pc-linux-gnu"

%struct.CVodeMemRec = type { ptr, double, ptr, ptr, i32, i32, double, double, ptr, i32, i32, ptr, ptr, i32, [13 x ptr], ptr, ptr, ptr, ptr, ptr, ptr, ptr, ptr, ptr, i32, i32, double, i32, i32, i32, i32, i32, double, double, double, double, double, double, double, double, [14 x double], [6 x double], [13 x double], double, double, double, double, double, double, double, i32, double, i32, i64, i32, i32, i32, double, double, double, double, double, double, double, double, double, double, double, double, i64, i32, i64, i64, i64, i64, i64, i64, i64, i32, double, double, double, i64, i64, i64, i64, ptr, i32, ptr, i32, ptr, ptr, ptr, ptr, ptr, i64, double, i32, i64, double, double, double, i32, double, i32, i32, i32, i32, i32, ptr, i64, i32, [6 x [4 x double]], i32, i64, ptr, i32, ptr, ptr, double, double, double, ptr, ptr, ptr, double, double, i32, i32, i64, ptr, i32, ptr, i32, i32, [13 x double], [13 x double], [13 x ptr], i32 }

; Function Attrs: nounwind uwtable
define internal i32 @cvRcheck1(ptr noundef %0) #0 {
  %2 = alloca i32, align 4
  %3 = alloca ptr, align 8
  %4 = alloca i32, align 4
  %5 = alloca i32, align 4
  %6 = alloca double, align 8
  %7 = alloca double, align 8
  %8 = alloca double, align 8
  %9 = alloca i32, align 4
  %10 = alloca i32, align 4
  store ptr %0, ptr %3, align 8, !tbaa !10
  call void @llvm.lifetime.start.p0(i64 4, ptr %4) #10
  call void @llvm.lifetime.start.p0(i64 4, ptr %5) #10
  call void @llvm.lifetime.start.p0(i64 8, ptr %6) #10
  call void @llvm.lifetime.start.p0(i64 8, ptr %7) #10
  call void @llvm.lifetime.start.p0(i64 8, ptr %8) #10
  call void @llvm.lifetime.start.p0(i64 4, ptr %9) #10
  store i32 0, ptr %4, align 4, !tbaa !3
  br label %11

11:                                               ; preds = %24, %1
  %12 = load i32, ptr %4, align 4, !tbaa !3
  %13 = load ptr, ptr %3, align 8, !tbaa !10
  %14 = getelementptr inbounds nuw %struct.CVodeMemRec, ptr %13, i32 0, i32 116
  %15 = load i32, ptr %14, align 8, !tbaa !66
  %16 = icmp slt i32 %12, %15
  br i1 %16, label %17, label %27

17:                                               ; preds = %11
  %18 = load ptr, ptr %3, align 8, !tbaa !10
  %19 = getelementptr inbounds nuw %struct.CVodeMemRec, ptr %18, i32 0, i32 117
  %20 = load ptr, ptr %19, align 8, !tbaa !63
  %21 = load i32, ptr %4, align 4, !tbaa !3
  %22 = sext i32 %21 to i64
  %23 = getelementptr inbounds i32, ptr %20, i64 %22
  store i32 0, ptr %23, align 4, !tbaa !3
  br label %24

24:                                               ; preds = %17
  %25 = load i32, ptr %4, align 4, !tbaa !3
  %26 = add nsw i32 %25, 1
  store i32 %26, ptr %4, align 4, !tbaa !3
  br label %11

27:                                               ; preds = %11
  %28 = load ptr, ptr %3, align 8, !tbaa !10
  %29 = getelementptr inbounds nuw %struct.CVodeMemRec, ptr %28, i32 0, i32 38
  %30 = load double, ptr %29, align 8, !tbaa !99
  %31 = load ptr, ptr %3, align 8, !tbaa !10
  %32 = getelementptr inbounds nuw %struct.CVodeMemRec, ptr %31, i32 0, i32 119
  store double %30, ptr %32, align 8, !tbaa !161
  %33 = load ptr, ptr %3, align 8, !tbaa !10
  %34 = getelementptr inbounds nuw %struct.CVodeMemRec, ptr %33, i32 0, i32 38
  %35 = load double, ptr %34, align 8, !tbaa !99
  %36 = call double @llvm.fabs.f64(double %35)
  %37 = load ptr, ptr %3, align 8, !tbaa !10
  %38 = getelementptr inbounds nuw %struct.CVodeMemRec, ptr %37, i32 0, i32 33
  %39 = load double, ptr %38, align 8, !tbaa !158
  %40 = call double @llvm.fabs.f64(double %39)
  %41 = fadd double %36, %40
  %42 = load ptr, ptr %3, align 8, !tbaa !10
  %43 = getelementptr inbounds nuw %struct.CVodeMemRec, ptr %42, i32 0, i32 1
  %44 = load double, ptr %43, align 8, !tbaa !22
  %45 = fmul double %41, %44
  %46 = fmul double %45, 1.000000e+02
  %47 = load ptr, ptr %3, align 8, !tbaa !10
  %48 = getelementptr inbounds nuw %struct.CVodeMemRec, ptr %47, i32 0, i32 126
  store double %46, ptr %48, align 8, !tbaa !164
  %49 = load ptr, ptr %3, align 8, !tbaa !10
  %50 = getelementptr inbounds nuw %struct.CVodeMemRec, ptr %49, i32 0, i32 115
  %51 = load ptr, ptr %50, align 8, !tbaa !65
  %52 = load ptr, ptr %3, align 8, !tbaa !10
  %53 = getelementptr inbounds nuw %struct.CVodeMemRec, ptr %52, i32 0, i32 119
  %54 = load double, ptr %53, align 8, !tbaa !161
  %55 = load ptr, ptr %3, align 8, !tbaa !10
  %56 = getelementptr inbounds nuw %struct.CVodeMemRec, ptr %55, i32 0, i32 14
  %57 = getelementptr inbounds [13 x ptr], ptr %56, i64 0, i64 0
  %58 = load ptr, ptr %57, align 8, !tbaa !91
  %59 = load ptr, ptr %3, align 8, !tbaa !10
  %60 = getelementptr inbounds nuw %struct.CVodeMemRec, ptr %59, i32 0, i32 122
  %61 = load ptr, ptr %60, align 8, !tbaa !60
  %62 = load ptr, ptr %3, align 8, !tbaa !10
  %63 = getelementptr inbounds nuw %struct.CVodeMemRec, ptr %62, i32 0, i32 3
  %64 = load ptr, ptr %63, align 8, !tbaa !24
  %65 = call i32 %51(double noundef %54, ptr noundef %58, ptr noundef %61, ptr noundef %64)
  store i32 %65, ptr %5, align 4, !tbaa !3
  %66 = load ptr, ptr %3, align 8, !tbaa !10
  %67 = getelementptr inbounds nuw %struct.CVodeMemRec, ptr %66, i32 0, i32 129
  store i64 1, ptr %67, align 8, !tbaa !123
  %68 = load i32, ptr %5, align 4, !tbaa !3
  %69 = icmp ne i32 %68, 0
  br i1 %69, label %70, label %71

70:                                               ; preds = %27
  store i32 -12, ptr %2, align 4
  store i32 1, ptr %10, align 4
  br label %219

71:                                               ; preds = %27
  store i32 0, ptr %9, align 4, !tbaa !3
  store i32 0, ptr %4, align 4, !tbaa !3
  br label %72

72:                                               ; preds = %96, %71
  %73 = load i32, ptr %4, align 4, !tbaa !3
  %74 = load ptr, ptr %3, align 8, !tbaa !10
  %75 = getelementptr inbounds nuw %struct.CVodeMemRec, ptr %74, i32 0, i32 116
  %76 = load i32, ptr %75, align 8, !tbaa !66
  %77 = icmp slt i32 %73, %76
  br i1 %77, label %78, label %99

78:                                               ; preds = %72
  %79 = load ptr, ptr %3, align 8, !tbaa !10
  %80 = getelementptr inbounds nuw %struct.CVodeMemRec, ptr %79, i32 0, i32 122
  %81 = load ptr, ptr %80, align 8, !tbaa !60
  %82 = load i32, ptr %4, align 4, !tbaa !3
  %83 = sext i32 %82 to i64
  %84 = getelementptr inbounds double, ptr %81, i64 %83
  %85 = load double, ptr %84, align 8, !tbaa !90
  %86 = call double @llvm.fabs.f64(double %85)
  %87 = fcmp oeq double %86, 0.000000e+00
  br i1 %87, label %88, label %95

88:                                               ; preds = %78
  store i32 1, ptr %9, align 4, !tbaa !3
  %89 = load ptr, ptr %3, align 8, !tbaa !10
  %90 = getelementptr inbounds nuw %struct.CVodeMemRec, ptr %89, i32 0, i32 130
  %91 = load ptr, ptr %90, align 8, !tbaa !67
  %92 = load i32, ptr %4, align 4, !tbaa !3
  %93 = sext i32 %92 to i64
  %94 = getelementptr inbounds i32, ptr %91, i64 %93
  store i32 0, ptr %94, align 4, !tbaa !3
  br label %95

95:                                               ; preds = %88, %78
  br label %96

96:                                               ; preds = %95
  %97 = load i32, ptr %4, align 4, !tbaa !3
  %98 = add nsw i32 %97, 1
  store i32 %98, ptr %4, align 4, !tbaa !3
  br label %72

99:                                               ; preds = %72
  %100 = load i32, ptr %9, align 4, !tbaa !3
  %101 = icmp ne i32 %100, 0
  br i1 %101, label %103, label %102

102:                                              ; preds = %99
  store i32 0, ptr %2, align 4
  store i32 1, ptr %10, align 4
  br label %219

103:                                              ; preds = %99
  %104 = load ptr, ptr %3, align 8, !tbaa !10
  %105 = getelementptr inbounds nuw %struct.CVodeMemRec, ptr %104, i32 0, i32 126
  %106 = load double, ptr %105, align 8, !tbaa !164
  %107 = load ptr, ptr %3, align 8, !tbaa !10
  %108 = getelementptr inbounds nuw %struct.CVodeMemRec, ptr %107, i32 0, i32 33
  %109 = load double, ptr %108, align 8, !tbaa !158
  %110 = call double @llvm.fabs.f64(double %109)
  %111 = fdiv double %106, %110
  %112 = fcmp ogt double %111, 1.000000e-01
  br i1 %112, label %113, label %122

113:                                              ; preds = %103
  %114 = load ptr, ptr %3, align 8, !tbaa !10
  %115 = getelementptr inbounds nuw %struct.CVodeMemRec, ptr %114, i32 0, i32 126
  %116 = load double, ptr %115, align 8, !tbaa !164
  %117 = load ptr, ptr %3, align 8, !tbaa !10
  %118 = getelementptr inbounds nuw %struct.CVodeMemRec, ptr %117, i32 0, i32 33
  %119 = load double, ptr %118, align 8, !tbaa !158
  %120 = call double @llvm.fabs.f64(double %119)
  %121 = fdiv double %116, %120
  br label %123

122:                                              ; preds = %103
  br label %123

123:                                              ; preds = %122, %113
  %124 = phi double [ %121, %113 ], [ 1.000000e-01, %122 ]
  store double %124, ptr %7, align 8, !tbaa !90
  %125 = load double, ptr %7, align 8, !tbaa !90
  %126 = load ptr, ptr %3, align 8, !tbaa !10
  %127 = getelementptr inbounds nuw %struct.CVodeMemRec, ptr %126, i32 0, i32 33
  %128 = load double, ptr %127, align 8, !tbaa !158
  %129 = fmul double %125, %128
  store double %129, ptr %6, align 8, !tbaa !90
  %130 = load ptr, ptr %3, align 8, !tbaa !10
  %131 = getelementptr inbounds nuw %struct.CVodeMemRec, ptr %130, i32 0, i32 119
  %132 = load double, ptr %131, align 8, !tbaa !161
  %133 = load double, ptr %6, align 8, !tbaa !90
  %134 = fadd double %132, %133
  store double %134, ptr %8, align 8, !tbaa !90
  %135 = load ptr, ptr %3, align 8, !tbaa !10
  %136 = getelementptr inbounds nuw %struct.CVodeMemRec, ptr %135, i32 0, i32 14
  %137 = getelementptr inbounds [13 x ptr], ptr %136, i64 0, i64 0
  %138 = load ptr, ptr %137, align 8, !tbaa !91
  %139 = load double, ptr %7, align 8, !tbaa !90
  %140 = load ptr, ptr %3, align 8, !tbaa !10
  %141 = getelementptr inbounds nuw %struct.CVodeMemRec, ptr %140, i32 0, i32 14
  %142 = getelementptr inbounds [13 x ptr], ptr %141, i64 0, i64 1
  %143 = load ptr, ptr %142, align 8, !tbaa !91
  %144 = load ptr, ptr %3, align 8, !tbaa !10
  %145 = getelementptr inbounds nuw %struct.CVodeMemRec, ptr %144, i32 0, i32 16
  %146 = load ptr, ptr %145, align 8, !tbaa !153
  call void @N_VLinearSum(double noundef 1.000000e+00, ptr noundef %138, double noundef %139, ptr noundef %143, ptr noundef %146)
  %147 = load ptr, ptr %3, align 8, !tbaa !10
  %148 = getelementptr inbounds nuw %struct.CVodeMemRec, ptr %147, i32 0, i32 115
  %149 = load ptr, ptr %148, align 8, !tbaa !65
  %150 = load double, ptr %8, align 8, !tbaa !90
  %151 = load ptr, ptr %3, align 8, !tbaa !10
  %152 = getelementptr inbounds nuw %struct.CVodeMemRec, ptr %151, i32 0, i32 16
  %153 = load ptr, ptr %152, align 8, !tbaa !153
  %154 = load ptr, ptr %3, align 8, !tbaa !10
  %155 = getelementptr inbounds nuw %struct.CVodeMemRec, ptr %154, i32 0, i32 123
  %156 = load ptr, ptr %155, align 8, !tbaa !61
  %157 = load ptr, ptr %3, align 8, !tbaa !10
  %158 = getelementptr inbounds nuw %struct.CVodeMemRec, ptr %157, i32 0, i32 3
  %159 = load ptr, ptr %158, align 8, !tbaa !24
  %160 = call i32 %149(double noundef %150, ptr noundef %153, ptr noundef %156, ptr noundef %159)
  store i32 %160, ptr %5, align 4, !tbaa !3
  %161 = load ptr, ptr %3, align 8, !tbaa !10
  %162 = getelementptr inbounds nuw %struct.CVodeMemRec, ptr %161, i32 0, i32 129
  %163 = load i64, ptr %162, align 8, !tbaa !123
  %164 = add nsw i64 %163, 1
  store i64 %164, ptr %162, align 8, !tbaa !123
  %165 = load i32, ptr %5, align 4, !tbaa !3
  %166 = icmp ne i32 %165, 0
  br i1 %166, label %167, label %168

167:                                              ; preds = %123
  store i32 -12, ptr %2, align 4
  store i32 1, ptr %10, align 4
  br label %219

168:                                              ; preds = %123
  store i32 0, ptr %4, align 4, !tbaa !3
  br label %169

169:                                              ; preds = %215, %168
  %170 = load i32, ptr %4, align 4, !tbaa !3
  %171 = load ptr, ptr %3, align 8, !tbaa !10
  %172 = getelementptr inbounds nuw %struct.CVodeMemRec, ptr %171, i32 0, i32 116
  %173 = load i32, ptr %172, align 8, !tbaa !66
  %174 = icmp slt i32 %170, %173
  br i1 %174, label %175, label %218

175:                                              ; preds = %169
  %176 = load ptr, ptr %3, align 8, !tbaa !10
  %177 = getelementptr inbounds nuw %struct.CVodeMemRec, ptr %176, i32 0, i32 130
  %178 = load ptr, ptr %177, align 8, !tbaa !67
  %179 = load i32, ptr %4, align 4, !tbaa !3
  %180 = sext i32 %179 to i64
  %181 = getelementptr inbounds i32, ptr %178, i64 %180
  %182 = load i32, ptr %181, align 4, !tbaa !3
  %183 = icmp ne i32 %182, 0
  br i1 %183, label %214, label %184

184:                                              ; preds = %175
  %185 = load ptr, ptr %3, align 8, !tbaa !10
  %186 = getelementptr inbounds nuw %struct.CVodeMemRec, ptr %185, i32 0, i32 123
  %187 = load ptr, ptr %186, align 8, !tbaa !61
  %188 = load i32, ptr %4, align 4, !tbaa !3
  %189 = sext i32 %188 to i64
  %190 = getelementptr inbounds double, ptr %187, i64 %189
  %191 = load double, ptr %190, align 8, !tbaa !90
  %192 = call double @llvm.fabs.f64(double %191)
  %193 = fcmp une double %192, 0.000000e+00
  br i1 %193, label %194, label %214

194:                                              ; preds = %184
  %195 = load ptr, ptr %3, align 8, !tbaa !10
  %196 = getelementptr inbounds nuw %struct.CVodeMemRec, ptr %195, i32 0, i32 130
  %197 = load ptr, ptr %196, align 8, !tbaa !67
  %198 = load i32, ptr %4, align 4, !tbaa !3
  %199 = sext i32 %198 to i64
  %200 = getelementptr inbounds i32, ptr %197, i64 %199
  store i32 1, ptr %200, align 4, !tbaa !3
  %201 = load ptr, ptr %3, align 8, !tbaa !10
  %202 = getelementptr inbounds nuw %struct.CVodeMemRec, ptr %201, i32 0, i32 123
  %203 = load ptr, ptr %202, align 8, !tbaa !61
  %204 = load i32, ptr %4, align 4, !tbaa !3
  %205 = sext i32 %204 to i64
  %206 = getelementptr inbounds double, ptr %203, i64 %205
  %207 = load double, ptr %206, align 8, !tbaa !90
  %208 = load ptr, ptr %3, align 8, !tbaa !10
  %209 = getelementptr inbounds nuw %struct.CVodeMemRec, ptr %208, i32 0, i32 122
  %210 = load ptr, ptr %209, align 8, !tbaa !60
  %211 = load i32, ptr %4, align 4, !tbaa !3
  %212 = sext i32 %211 to i64
  %213 = getelementptr inbounds double, ptr %210, i64 %212
  store double %207, ptr %213, align 8, !tbaa !90
  br label %214

214:                                              ; preds = %194, %184, %175
  br label %215

215:                                              ; preds = %214
  %216 = load i32, ptr %4, align 4, !tbaa !3
  %217 = add nsw i32 %216, 1
  store i32 %217, ptr %4, align 4, !tbaa !3
  br label %169

218:                                              ; preds = %169
  store i32 0, ptr %2, align 4
  store i32 1, ptr %10, align 4
  br label %219

219:                                              ; preds = %218, %167, %102, %70
  call void @llvm.lifetime.end.p0(i64 4, ptr %9) #10
  call void @llvm.lifetime.end.p0(i64 8, ptr %8) #10
  call void @llvm.lifetime.end.p0(i64 8, ptr %7) #10
  call void @llvm.lifetime.end.p0(i64 8, ptr %6) #10
  call void @llvm.lifetime.end.p0(i64 4, ptr %5) #10
  call void @llvm.lifetime.end.p0(i64 4, ptr %4) #10
  %220 = load i32, ptr %2, align 4
  ret i32 %220
}