; Function Attrs: nounwind uwtable
define internal fastcc range(i32 -12, 1) i32 @cvRcheck1(ptr noundef nonnull captures(none) %0) unnamed_addr #0 {
  %2 = getelementptr inbounds nuw i8, ptr %0, i64 1384
  %3 = load i32, ptr %2, align 8, !tbaa !109
  %4 = icmp sgt i32 %3, 0
  br i1 %4, label %.lr.ph, label %._crit_edge

.lr.ph:                                           ; preds = %1
  %5 = getelementptr inbounds nuw i8, ptr %0, i64 1392
  %6 = load ptr, ptr %5, align 8, !tbaa !113
  br label %7

7:                                                ; preds = %.lr.ph, %7
  %indvars.iv = phi i64 [ 0, %.lr.ph ], [ %indvars.iv.next, %7 ]
  %8 = getelementptr inbounds nuw i32, ptr %6, i64 %indvars.iv
  store i32 0, ptr %8, align 4, !tbaa !117
  %indvars.iv.next = add nuw nsw i64 %indvars.iv, 1
  %9 = load i32, ptr %2, align 8, !tbaa !109
  %10 = sext i32 %9 to i64
  %11 = icmp slt i64 %indvars.iv.next, %10
  br i1 %11, label %7, label %._crit_edge

._crit_edge:                                      ; preds = %7, %1
  %12 = getelementptr inbounds nuw i8, ptr %0, i64 360
  %13 = load double, ptr %12, align 8, !tbaa !81
  %14 = getelementptr inbounds nuw i8, ptr %0, i64 1408
  store double %13, ptr %14, align 8, !tbaa !139
  %15 = tail call double @llvm.fabs.f64(double %13)
  %16 = getelementptr inbounds nuw i8, ptr %0, i64 320
  %17 = load double, ptr %16, align 8, !tbaa !133
  %18 = tail call double @llvm.fabs.f64(double %17)
  %19 = fadd double %15, %18
  %20 = getelementptr inbounds nuw i8, ptr %0, i64 8
  %21 = load double, ptr %20, align 8, !tbaa !18
  %22 = fmul double %21, %19
  %23 = fmul double %22, 1.000000e+02
  %24 = getelementptr inbounds nuw i8, ptr %0, i64 1464
  store double %23, ptr %24, align 8, !tbaa !175
  %25 = getelementptr inbounds nuw i8, ptr %0, i64 1376
  %26 = load ptr, ptr %25, align 8, !tbaa !116
  %27 = getelementptr inbounds nuw i8, ptr %0, i64 96
  %28 = load ptr, ptr %27, align 8, !tbaa !79
  %29 = getelementptr inbounds nuw i8, ptr %0, i64 1432
  %30 = load ptr, ptr %29, align 8, !tbaa !110
  %31 = getelementptr inbounds nuw i8, ptr %0, i64 24
  %32 = load ptr, ptr %31, align 8, !tbaa !123
  %33 = tail call i32 %26(double noundef %13, ptr noundef %28, ptr noundef %30, ptr noundef %32) #13
  %34 = getelementptr inbounds nuw i8, ptr %0, i64 1480
  store i64 1, ptr %34, align 8, !tbaa !91
  %.not = icmp eq i32 %33, 0
  br i1 %.not, label %.preheader65, label %.loopexit

.preheader65:                                     ; preds = %._crit_edge
  %35 = load i32, ptr %2, align 8, !tbaa !109
  %36 = icmp sgt i32 %35, 0
  br i1 %36, label %.lr.ph69, label %.loopexit

.lr.ph69:                                         ; preds = %.preheader65
  %37 = load ptr, ptr %29, align 8, !tbaa !110
  %38 = getelementptr inbounds nuw i8, ptr %0, i64 1488
  br label %.outer

.outer:                                           ; preds = %.thread, %.lr.ph69
  %.ph = phi i32 [ %.pre, %.thread ], [ %35, %.lr.ph69 ]
  %indvars.iv74.ph = phi i64 [ %indvars.iv.next7583, %.thread ], [ 0, %.lr.ph69 ]
  %39 = phi i1 [ false, %.thread ], [ true, %.lr.ph69 ]
  %40 = sext i32 %.ph to i64
  br label %41

41:                                               ; preds = %.outer, %45
  %indvars.iv74 = phi i64 [ %indvars.iv.next75, %45 ], [ %indvars.iv74.ph, %.outer ]
  %42 = getelementptr inbounds nuw double, ptr %37, i64 %indvars.iv74
  %43 = load double, ptr %42, align 8, !tbaa !96
  %44 = fcmp oeq double %43, 0.000000e+00
  br i1 %44, label %.thread, label %45

45:                                               ; preds = %41
  %indvars.iv.next75 = add nuw nsw i64 %indvars.iv74, 1
  %46 = icmp slt i64 %indvars.iv.next75, %40
  br i1 %46, label %41, label %._crit_edge70

.thread:                                          ; preds = %41
  %47 = load ptr, ptr %38, align 8, !tbaa !115
  %48 = getelementptr inbounds nuw i32, ptr %47, i64 %indvars.iv74
  store i32 0, ptr %48, align 4, !tbaa !117
  %.pre = load i32, ptr %2, align 8, !tbaa !109
  %indvars.iv.next7583 = add nuw nsw i64 %indvars.iv74, 1
  %49 = sext i32 %.pre to i64
  %50 = icmp slt i64 %indvars.iv.next7583, %49
  br i1 %50, label %.outer, label %._crit_edge70.thread85

._crit_edge70:                                    ; preds = %45
  br i1 %39, label %.loopexit, label %._crit_edge70.thread85

._crit_edge70.thread85:                           ; preds = %.thread, %._crit_edge70
  %51 = load double, ptr %24, align 8, !tbaa !175
  %52 = load double, ptr %16, align 8, !tbaa !133
  %53 = tail call double @llvm.fabs.f64(double %52)
  %54 = fdiv double %51, %53
  %55 = fcmp ogt double %54, 1.000000e-01
  %56 = select i1 %55, double %54, double 1.000000e-01
  %57 = fmul double %52, %56
  %58 = load double, ptr %14, align 8, !tbaa !139
  %59 = fadd double %58, %57
  %60 = load ptr, ptr %27, align 8, !tbaa !79
  %61 = getelementptr inbounds nuw i8, ptr %0, i64 104
  %62 = load ptr, ptr %61, align 8, !tbaa !79
  %63 = getelementptr inbounds nuw i8, ptr %0, i64 208
  %64 = load ptr, ptr %63, align 8, !tbaa !118
  tail call void @N_VLinearSum(double noundef 1.000000e+00, ptr noundef %60, double noundef %56, ptr noundef %62, ptr noundef %64) #13
  %65 = load ptr, ptr %25, align 8, !tbaa !116
  %66 = load ptr, ptr %63, align 8, !tbaa !118
  %67 = getelementptr inbounds nuw i8, ptr %0, i64 1440
  %68 = load ptr, ptr %67, align 8, !tbaa !111
  %69 = load ptr, ptr %31, align 8, !tbaa !123
  %70 = tail call i32 %65(double noundef %59, ptr noundef %66, ptr noundef %68, ptr noundef %69) #13
  %71 = load i64, ptr %34, align 8, !tbaa !91
  %72 = add nsw i64 %71, 1
  store i64 %72, ptr %34, align 8, !tbaa !91
  %.not63 = icmp eq i32 %70, 0
  br i1 %.not63, label %.preheader, label %.loopexit

.preheader:                                       ; preds = %._crit_edge70.thread85
  %73 = load i32, ptr %2, align 8, !tbaa !109
  %74 = icmp sgt i32 %73, 0
  br i1 %74, label %.lr.ph72, label %.loopexit

.lr.ph72:                                         ; preds = %.preheader
  %75 = getelementptr inbounds nuw i8, ptr %0, i64 1488
  %76 = load ptr, ptr %75, align 8, !tbaa !115
  br label %77

77:                                               ; preds = %.lr.ph72, %89
  %78 = phi i32 [ %73, %.lr.ph72 ], [ %90, %89 ]
  %indvars.iv77 = phi i64 [ 0, %.lr.ph72 ], [ %indvars.iv.next78, %89 ]
  %79 = getelementptr inbounds nuw i32, ptr %76, i64 %indvars.iv77
  %80 = load i32, ptr %79, align 4, !tbaa !117
  %.not64 = icmp eq i32 %80, 0
  br i1 %.not64, label %81, label %89

81:                                               ; preds = %77
  %82 = load ptr, ptr %67, align 8, !tbaa !111
  %83 = getelementptr inbounds nuw double, ptr %82, i64 %indvars.iv77
  %84 = load double, ptr %83, align 8, !tbaa !96
  %85 = fcmp une double %84, 0.000000e+00
  br i1 %85, label %86, label %89

86:                                               ; preds = %81
  store i32 1, ptr %79, align 4, !tbaa !117
  %87 = load ptr, ptr %29, align 8, !tbaa !110
  %88 = getelementptr inbounds nuw double, ptr %87, i64 %indvars.iv77
  store double %84, ptr %88, align 8, !tbaa !96
  %.pre80 = load i32, ptr %2, align 8, !tbaa !109
  br label %89

89:                                               ; preds = %77, %81, %86
  %90 = phi i32 [ %78, %77 ], [ %78, %81 ], [ %.pre80, %86 ]
  %indvars.iv.next78 = add nuw nsw i64 %indvars.iv77, 1
  %91 = sext i32 %90 to i64
  %92 = icmp slt i64 %indvars.iv.next78, %91
  br i1 %92, label %77, label %.loopexit

.loopexit:                                        ; preds = %89, %.preheader65, %.preheader, %._crit_edge70.thread85, %._crit_edge70, %._crit_edge
  %.058 = phi i32 [ -12, %._crit_edge ], [ 0, %._crit_edge70 ], [ -12, %._crit_edge70.thread85 ], [ 0, %.preheader ], [ 0, %.preheader65 ], [ 0, %89 ]
  ret i32 %.058
}